; Function Attrs: nounwind sspstrong uwtable
define internal noundef i64 @ossl_pkcs7_set_type(i64 noundef %0, i64 noundef returned %1) #0 {
  %3 = alloca i64, align 8
  %4 = tail call ptr @rb_check_typeddata(i64 noundef %0, ptr noundef nonnull @ossl_pkcs7_type) #5
  %.not = icmp eq ptr %4, null
  br i1 %.not, label %5, label %7

5:                                                ; preds = %2
  %6 = load i64, ptr @rb_eRuntimeError, align 8, !tbaa !6
  tail call void (i64, ptr, ...) @ossl_raise(i64 noundef %6, ptr noundef nonnull @.str.1) #6
  unreachable

7:                                                ; preds = %2
  call void @llvm.lifetime.start.p0(i64 8, ptr nonnull %3)
  store i64 %1, ptr %3, align 8, !tbaa !6
  %8 = and i64 %1, 255
  %9 = icmp eq i64 %8, 12
  br i1 %9, label %RB_SYMBOL_P.exit.thread.i, label %10

10:                                               ; preds = %7
  %11 = icmp eq i64 %1, 0
  %12 = and i64 %1, 7
  %13 = icmp ne i64 %12, 0
  %14 = or i1 %11, %13
  br i1 %14, label %RB_SYMBOL_P.exit.thread7.i, label %RB_SYMBOL_P.exit.i

RB_SYMBOL_P.exit.i:                               ; preds = %10
  %15 = inttoptr i64 %1 to ptr
  %16 = load i64, ptr %15, align 8, !tbaa !32
  %17 = and i64 %16, 31
  %18 = icmp eq i64 %17, 20
  br i1 %18, label %RB_SYMBOL_P.exit.thread.i, label %RB_SYMBOL_P.exit.thread7.i

RB_SYMBOL_P.exit.thread.i:                        ; preds = %RB_SYMBOL_P.exit.i, %7
  %19 = tail call i64 @rb_sym2str(i64 noundef %1) #5
  store i64 %19, ptr %3, align 8, !tbaa !6
  br label %21

RB_SYMBOL_P.exit.thread7.i:                       ; preds = %RB_SYMBOL_P.exit.i, %10
  %20 = call i64 @rb_string_value(ptr noundef nonnull %3) #5
  %.pre.i = load i64, ptr %3, align 8, !tbaa !6
  br label %21

21:                                               ; preds = %RB_SYMBOL_P.exit.thread7.i, %RB_SYMBOL_P.exit.thread.i
  %22 = phi i64 [ %.pre.i, %RB_SYMBOL_P.exit.thread7.i ], [ %19, %RB_SYMBOL_P.exit.thread.i ]
  %23 = inttoptr i64 %22 to ptr
  %24 = load i64, ptr %23, align 8, !tbaa !32, !noalias !37
  %25 = and i64 %24, 8192
  %.not.i.i = icmp eq i64 %25, 0
  %26 = getelementptr inbounds nuw i8, ptr %23, i64 24
  br i1 %.not.i.i, label %rbimpl_rstring_getmem.exit.i, label %27

27:                                               ; preds = %21
  %.sroa.5.0.copyload.i = load ptr, ptr %26, align 8
  br label %rbimpl_rstring_getmem.exit.i

rbimpl_rstring_getmem.exit.i:                     ; preds = %27, %21
  %.sroa.5.0.i = phi ptr [ %.sroa.5.0.copyload.i, %27 ], [ %26, %21 ]
  %.sroa.3.0.in.i = getelementptr inbounds nuw i8, ptr %23, i64 16
  %.sroa.3.0.i = load i64, ptr %.sroa.3.0.in.i, align 8, !tbaa !6
  br label %30

28:                                               ; preds = %36
  %29 = load i64, ptr @ePKCS7Error, align 8, !tbaa !6
  call void (i64, ptr, ...) @ossl_raise(i64 noundef %29, ptr noundef nonnull @.str.63, i64 noundef %22) #6
  unreachable

30:                                               ; preds = %36, %rbimpl_rstring_getmem.exit.i
  %indvars.iv.i = phi i64 [ 0, %rbimpl_rstring_getmem.exit.i ], [ %indvars.iv.next.i, %36 ]
  %31 = getelementptr inbounds nuw [6 x %struct.anon.0], ptr @ossl_pkcs7_sym2typeid.p7_type_tab, i64 0, i64 %indvars.iv.i
  %32 = call i64 @strlen(ptr noundef nonnull dereferenceable(1) %31) #7
  %.not.i = icmp eq i64 %32, %.sroa.3.0.i
  br i1 %.not.i, label %33, label %36

33:                                               ; preds = %30
  %34 = call i32 @strcmp(ptr noundef nonnull dereferenceable(1) %31, ptr noundef nonnull dereferenceable(1) %.sroa.5.0.i) #7
  %35 = icmp eq i32 %34, 0
  br i1 %35, label %ossl_pkcs7_sym2typeid.exit, label %36

36:                                               ; preds = %33, %30
  %indvars.iv.next.i = add nuw nsw i64 %indvars.iv.i, 1
  %37 = icmp eq i64 %indvars.iv.next.i, 6
  br i1 %37, label %28, label %30

ossl_pkcs7_sym2typeid.exit:                       ; preds = %33
  %38 = getelementptr inbounds nuw i8, ptr %31, i64 20
  %39 = load i32, ptr %38, align 4, !tbaa !40
  call void @llvm.lifetime.end.p0(i64 8, ptr nonnull %3)
  %40 = call i32 @PKCS7_set_type(ptr noundef nonnull %4, i32 noundef %39) #5
  %.not4 = icmp eq i32 %40, 0
  br i1 %.not4, label %41, label %43

41:                                               ; preds = %ossl_pkcs7_sym2typeid.exit
  %42 = load i64, ptr @ePKCS7Error, align 8, !tbaa !6
  call void (i64, ptr, ...) @ossl_raise(i64 noundef %42, ptr noundef null) #6
  unreachable

43:                                               ; preds = %ossl_pkcs7_sym2typeid.exit
  ret i64 %1
}